target datalayout = "e-m:e-p270:32:32-p271:32:32-p272:64:64-i64:64-i128:128-f80:128-n8:16:32:64-S128"
target triple = "x86_64-unknown-linux-gnu"

%class.act_cache = type <{ ptr, %class.cmap, %class.svector, i32, i32, i32, [4 x i8] }>
%class.cmap = type { %class.chashtable }
%class.chashtable = type { ptr, i32, i32, i32, i32, i32, i32, i32, ptr, ptr, ptr }
%class.svector = type { %class.vector }
%class.vector = type { ptr }
%"struct.std::pair" = type <{ ptr, i32, [4 x i8] }>
%"struct.cmap<std::pair<expr *, unsigned int>, expr *, act_cache::entry_hash, default_eq<std::pair<expr *, unsigned int>>>::key_value" = type { %"struct.std::pair", ptr }
%"struct.chashtable<cmap<std::pair<expr *, unsigned int>, expr *, act_cache::entry_hash, default_eq<std::pair<expr *, unsigned int>>>::key_value, cmap<std::pair<expr *, unsigned int>, expr *, act_cache::entry_hash, default_eq<std::pair<expr *, unsigned int>>>::key_value_hash_proc, cmap<std::pair<expr *, unsigned int>, expr *, act_cache::entry_hash, default_eq<std::pair<expr *, unsigned int>>>::key_value_eq_proc>::cell" = type { ptr, %"struct.cmap<std::pair<expr *, unsigned int>, expr *, act_cache::entry_hash, default_eq<std::pair<expr *, unsigned int>>>::key_value" }
%class.ast = type { i32, i24, i32, i32 }

; Function Attrs: mustprogress nounwind uwtable
define linkonce_odr hidden noundef zeroext i1 @_ZSteqIP4exprjEbRKSt4pairIT_T0_ES7_(ptr noundef nonnull align 8 dereferenceable(12) %__x, ptr noundef nonnull align 8 dereferenceable(12) %__y) #5 comdat {
entry:
  %__x.addr = alloca ptr, align 8
  %__y.addr = alloca ptr, align 8
  store ptr %__x, ptr %__x.addr, align 8
  store ptr %__y, ptr %__y.addr, align 8
  %0 = load ptr, ptr %__x.addr, align 8
  %first = getelementptr inbounds %"struct.std::pair", ptr %0, i32 0, i32 0
  %1 = load ptr, ptr %first, align 8
  %2 = load ptr, ptr %__y.addr, align 8
  %first1 = getelementptr inbounds %"struct.std::pair", ptr %2, i32 0, i32 0
  %3 = load ptr, ptr %first1, align 8
  %cmp = icmp eq ptr %1, %3
  br i1 %cmp, label %land.rhs, label %land.end

land.rhs:                                         ; preds = %entry
  %4 = load ptr, ptr %__x.addr, align 8
  %second = getelementptr inbounds %"struct.std::pair", ptr %4, i32 0, i32 1
  %5 = load i32, ptr %second, align 8
  %6 = load ptr, ptr %__y.addr, align 8
  %second2 = getelementptr inbounds %"struct.std::pair", ptr %6, i32 0, i32 1
  %7 = load i32, ptr %second2, align 8
  %cmp3 = icmp eq i32 %5, %7
  br label %land.end

land.end:                                         ; preds = %land.rhs, %entry
  %8 = phi i1 [ false, %entry ], [ %cmp3, %land.rhs ]
  ret i1 %8
}

; Function Attrs: mustprogress nounwind uwtable
define linkonce_odr hidden noundef i32 @_ZNK3ast4hashEv(ptr noundef nonnull align 4 dereferenceable(16) %this) #5 comdat align 2 {
entry:
  %this.addr = alloca ptr, align 8
  store ptr %this, ptr %this.addr, align 8
  %this1 = load ptr, ptr %this.addr, align 8
  %m_hash = getelementptr inbounds %class.ast, ptr %this1, i32 0, i32 3
  %0 = load i32, ptr %m_hash, align 4
  ret i32 %0
}

; Function Attrs: mustprogress uwtable
define linkonce_odr hidden noundef zeroext i1 @_ZNK10default_eqISt4pairIP4exprjEEclERKS3_S6_(ptr noundef nonnull align 1 dereferenceable(1) %this, ptr noundef nonnull align 8 dereferenceable(12) %e1, ptr noundef nonnull align 8 dereferenceable(12) %e2) #4 comdat align 2 {
entry:
  %this.addr = alloca ptr, align 8
  %e1.addr = alloca ptr, align 8
  %e2.addr = alloca ptr, align 8
  store ptr %this, ptr %this.addr, align 8
  store ptr %e1, ptr %e1.addr, align 8
  store ptr %e2, ptr %e2.addr, align 8
  %0 = load ptr, ptr %e1.addr, align 8
  %1 = load ptr, ptr %e2.addr, align 8
  %call = call noundef zeroext i1 @_ZSteqIP4exprjEbRKSt4pairIT_T0_ES7_(ptr noundef nonnull align 8 dereferenceable(12) %0, ptr noundef nonnull align 8 dereferenceable(12) %1)
  ret i1 %call
}

; Function Attrs: mustprogress uwtable
define linkonce_odr hidden noundef i32 @_ZNK9act_cache10entry_hashclERKSt4pairIP4exprjE(ptr noundef nonnull align 1 dereferenceable(1) %this, ptr noundef nonnull align 8 dereferenceable(12) %e) #4 comdat align 2 {
entry:
  %this.addr = alloca ptr, align 8
  %e.addr = alloca ptr, align 8
  store ptr %this, ptr %this.addr, align 8
  store ptr %e, ptr %e.addr, align 8
  %0 = load ptr, ptr %e.addr, align 8
  %first = getelementptr inbounds %"struct.std::pair", ptr %0, i32 0, i32 0
  %1 = load ptr, ptr %first, align 8
  %call = call noundef i32 @_ZNK3ast4hashEv(ptr noundef nonnull align 4 dereferenceable(16) %1)
  %2 = load ptr, ptr %e.addr, align 8
  %second = getelementptr inbounds %"struct.std::pair", ptr %2, i32 0, i32 1
  %3 = load i32, ptr %second, align 8
  %add = add i32 %call, %3
  ret i32 %add
}

; Function Attrs: mustprogress uwtable
define linkonce_odr hidden noundef zeroext i1 @_ZNK4cmapISt4pairIP4exprjES2_N9act_cache10entry_hashE10default_eqIS3_EE17key_value_eq_procclERKNS8_9key_valueESC_(ptr noundef nonnull align 1 dereferenceable(1) %this, ptr noundef nonnull align 8 dereferenceable(24) %d1, ptr noundef nonnull align 8 dereferenceable(24) %d2) #4 comdat align 2 {
entry:
  %this.addr = alloca ptr, align 8
  %d1.addr = alloca ptr, align 8
  %d2.addr = alloca ptr, align 8
  store ptr %this, ptr %this.addr, align 8
  store ptr %d1, ptr %d1.addr, align 8
  store ptr %d2, ptr %d2.addr, align 8
  %this1 = load ptr, ptr %this.addr, align 8
  %0 = load ptr, ptr %d1.addr, align 8
  %m_key = getelementptr inbounds %"struct.cmap<std::pair<expr *, unsigned int>, expr *, act_cache::entry_hash, default_eq<std::pair<expr *, unsigned int>>>::key_value", ptr %0, i32 0, i32 0
  %1 = load ptr, ptr %d2.addr, align 8
  %m_key2 = getelementptr inbounds %"struct.cmap<std::pair<expr *, unsigned int>, expr *, act_cache::entry_hash, default_eq<std::pair<expr *, unsigned int>>>::key_value", ptr %1, i32 0, i32 0
  %call = call noundef zeroext i1 @_ZNK10default_eqISt4pairIP4exprjEEclERKS3_S6_(ptr noundef nonnull align 1 dereferenceable(1) %this1, ptr noundef nonnull align 8 dereferenceable(12) %m_key, ptr noundef nonnull align 8 dereferenceable(12) %m_key2)
  ret i1 %call
}

; Function Attrs: mustprogress uwtable
define linkonce_odr hidden noundef i32 @_ZNK4cmapISt4pairIP4exprjES2_N9act_cache10entry_hashE10default_eqIS3_EE19key_value_hash_procclERKNS8_9key_valueE(ptr noundef nonnull align 1 dereferenceable(1) %this, ptr noundef nonnull align 8 dereferenceable(24) %d) #4 comdat align 2 {
entry:
  %this.addr = alloca ptr, align 8
  %d.addr = alloca ptr, align 8
  store ptr %this, ptr %this.addr, align 8
  store ptr %d, ptr %d.addr, align 8
  %this1 = load ptr, ptr %this.addr, align 8
  %0 = load ptr, ptr %d.addr, align 8
  %m_key = getelementptr inbounds %"struct.cmap<std::pair<expr *, unsigned int>, expr *, act_cache::entry_hash, default_eq<std::pair<expr *, unsigned int>>>::key_value", ptr %0, i32 0, i32 0
  %call = call noundef i32 @_ZNK9act_cache10entry_hashclERKSt4pairIP4exprjE(ptr noundef nonnull align 1 dereferenceable(1) %this1, ptr noundef nonnull align 8 dereferenceable(12) %m_key)
  ret i32 %call
}

; Function Attrs: mustprogress uwtable
define linkonce_odr hidden noundef zeroext i1 @_ZNK10chashtableIN4cmapISt4pairIP4exprjES3_N9act_cache10entry_hashE10default_eqIS4_EE9key_valueENS9_19key_value_hash_procENS9_17key_value_eq_procEE6equalsERKSA_SF_(ptr noundef nonnull align 8 dereferenceable(64) %this, ptr noundef nonnull align 8 dereferenceable(24) %e1, ptr noundef nonnull align 8 dereferenceable(24) %e2) #4 comdat align 2 {
entry:
  %this.addr = alloca ptr, align 8
  %e1.addr = alloca ptr, align 8
  %e2.addr = alloca ptr, align 8
  store ptr %this, ptr %this.addr, align 8
  store ptr %e1, ptr %e1.addr, align 8
  store ptr %e2, ptr %e2.addr, align 8
  %this1 = load ptr, ptr %this.addr, align 8
  %0 = load ptr, ptr %e1.addr, align 8
  %1 = load ptr, ptr %e2.addr, align 8
  %call = call noundef zeroext i1 @_ZNK4cmapISt4pairIP4exprjES2_N9act_cache10entry_hashE10default_eqIS3_EE17key_value_eq_procclERKNS8_9key_valueESC_(ptr noundef nonnull align 1 dereferenceable(1) %this1, ptr noundef nonnull align 8 dereferenceable(24) %0, ptr noundef nonnull align 8 dereferenceable(24) %1)
  ret i1 %call
}

; Function Attrs: mustprogress nounwind uwtable
define linkonce_odr hidden noundef zeroext i1 @_ZNK10chashtableIN4cmapISt4pairIP4exprjES3_N9act_cache10entry_hashE10default_eqIS4_EE9key_valueENS9_19key_value_hash_procENS9_17key_value_eq_procEE4cell7is_freeEv(ptr noundef nonnull align 8 dereferenceable(32) %this) #5 comdat align 2 {
entry:
  %this.addr = alloca ptr, align 8
  store ptr %this, ptr %this.addr, align 8
  %this1 = load ptr, ptr %this.addr, align 8
  %m_next = getelementptr inbounds %"struct.chashtable<cmap<std::pair<expr *, unsigned int>, expr *, act_cache::entry_hash, default_eq<std::pair<expr *, unsigned int>>>::key_value, cmap<std::pair<expr *, unsigned int>, expr *, act_cache::entry_hash, default_eq<std::pair<expr *, unsigned int>>>::key_value_hash_proc, cmap<std::pair<expr *, unsigned int>, expr *, act_cache::entry_hash, default_eq<std::pair<expr *, unsigned int>>>::key_value_eq_proc>::cell", ptr %this1, i32 0, i32 0
  %0 = load ptr, ptr %m_next, align 8
  %1 = ptrtoint ptr %0 to i64
  %and = and i64 %1, 7
  %cmp = icmp eq i64 %and, 1
  ret i1 %cmp
}

; Function Attrs: mustprogress uwtable
define linkonce_odr hidden noundef i32 @_ZNK10chashtableIN4cmapISt4pairIP4exprjES3_N9act_cache10entry_hashE10default_eqIS4_EE9key_valueENS9_19key_value_hash_procENS9_17key_value_eq_procEE8get_hashERKSA_(ptr noundef nonnull align 8 dereferenceable(64) %this, ptr noundef nonnull align 8 dereferenceable(24) %d) #4 comdat align 2 {
entry:
  %this.addr = alloca ptr, align 8
  %d.addr = alloca ptr, align 8
  store ptr %this, ptr %this.addr, align 8
  store ptr %d, ptr %d.addr, align 8
  %this1 = load ptr, ptr %this.addr, align 8
  %0 = load ptr, ptr %d.addr, align 8
  %call = call noundef i32 @_ZNK4cmapISt4pairIP4exprjES2_N9act_cache10entry_hashE10default_eqIS3_EE19key_value_hash_procclERKNS8_9key_valueE(ptr noundef nonnull align 1 dereferenceable(1) %this1, ptr noundef nonnull align 8 dereferenceable(24) %0)
  ret i32 %call
}

; Function Attrs: mustprogress uwtable
define linkonce_odr hidden noundef ptr @_ZNK10chashtableIN4cmapISt4pairIP4exprjES3_N9act_cache10entry_hashE10default_eqIS4_EE9key_valueENS9_19key_value_hash_procENS9_17key_value_eq_procEE9find_coreERKSA_(ptr noundef nonnull align 8 dereferenceable(64) %this, ptr noundef nonnull align 8 dereferenceable(24) %d) #4 comdat align 2 {
entry:
  %retval = alloca ptr, align 8
  %this.addr = alloca ptr, align 8
  %d.addr = alloca ptr, align 8
  %mask = alloca i32, align 4
  %h = alloca i32, align 4
  %idx = alloca i32, align 4
  %c = alloca ptr, align 8
  store ptr %this, ptr %this.addr, align 8
  store ptr %d, ptr %d.addr, align 8
  %this1 = load ptr, ptr %this.addr, align 8
  %m_slots = getelementptr inbounds %class.chashtable, ptr %this1, i32 0, i32 4
  %0 = load i32, ptr %m_slots, align 4
  %sub = sub i32 %0, 1
  store i32 %sub, ptr %mask, align 4
  %1 = load ptr, ptr %d.addr, align 8
  %call = call noundef i32 @_ZNK10chashtableIN4cmapISt4pairIP4exprjES3_N9act_cache10entry_hashE10default_eqIS4_EE9key_valueENS9_19key_value_hash_procENS9_17key_value_eq_procEE8get_hashERKSA_(ptr noundef nonnull align 8 dereferenceable(64) %this1, ptr noundef nonnull align 8 dereferenceable(24) %1)
  store i32 %call, ptr %h, align 4
  %2 = load i32, ptr %h, align 4
  %3 = load i32, ptr %mask, align 4
  %and = and i32 %2, %3
  store i32 %and, ptr %idx, align 4
  %m_table = getelementptr inbounds %class.chashtable, ptr %this1, i32 0, i32 0
  %4 = load ptr, ptr %m_table, align 8
  %5 = load i32, ptr %idx, align 4
  %idx.ext = zext i32 %5 to i64
  %add.ptr = getelementptr inbounds %"struct.chashtable<cmap<std::pair<expr *, unsigned int>, expr *, act_cache::entry_hash, default_eq<std::pair<expr *, unsigned int>>>::key_value, cmap<std::pair<expr *, unsigned int>, expr *, act_cache::entry_hash, default_eq<std::pair<expr *, unsigned int>>>::key_value_hash_proc, cmap<std::pair<expr *, unsigned int>, expr *, act_cache::entry_hash, default_eq<std::pair<expr *, unsigned int>>>::key_value_eq_proc>::cell", ptr %4, i64 %idx.ext
  store ptr %add.ptr, ptr %c, align 8
  %6 = load ptr, ptr %c, align 8
  %call2 = call noundef zeroext i1 @_ZNK10chashtableIN4cmapISt4pairIP4exprjES3_N9act_cache10entry_hashE10default_eqIS4_EE9key_valueENS9_19key_value_hash_procENS9_17key_value_eq_procEE4cell7is_freeEv(ptr noundef nonnull align 8 dereferenceable(32) %6)
  br i1 %call2, label %if.then, label %if.end

if.then:                                          ; preds = %entry
  store ptr null, ptr %retval, align 8
  br label %return

if.end:                                           ; preds = %entry
  br label %do.body

do.body:                                          ; preds = %do.cond, %if.end
  %7 = load ptr, ptr %c, align 8
  %m_data = getelementptr inbounds %"struct.chashtable<cmap<std::pair<expr *, unsigned int>, expr *, act_cache::entry_hash, default_eq<std::pair<expr *, unsigned int>>>::key_value, cmap<std::pair<expr *, unsigned int>, expr *, act_cache::entry_hash, default_eq<std::pair<expr *, unsigned int>>>::key_value_hash_proc, cmap<std::pair<expr *, unsigned int>, expr *, act_cache::entry_hash, default_eq<std::pair<expr *, unsigned int>>>::key_value_eq_proc>::cell", ptr %7, i32 0, i32 1
  %8 = load ptr, ptr %d.addr, align 8
  %call3 = call noundef zeroext i1 @_ZNK10chashtableIN4cmapISt4pairIP4exprjES3_N9act_cache10entry_hashE10default_eqIS4_EE9key_valueENS9_19key_value_hash_procENS9_17key_value_eq_procEE6equalsERKSA_SF_(ptr noundef nonnull align 8 dereferenceable(64) %this1, ptr noundef nonnull align 8 dereferenceable(24) %m_data, ptr noundef nonnull align 8 dereferenceable(24) %8)
  br i1 %call3, label %if.then4, label %if.end6

if.then4:                                         ; preds = %do.body
  %9 = load ptr, ptr %c, align 8
  %m_data5 = getelementptr inbounds %"struct.chashtable<cmap<std::pair<expr *, unsigned int>, expr *, act_cache::entry_hash, default_eq<std::pair<expr *, unsigned int>>>::key_value, cmap<std::pair<expr *, unsigned int>, expr *, act_cache::entry_hash, default_eq<std::pair<expr *, unsigned int>>>::key_value_hash_proc, cmap<std::pair<expr *, unsigned int>, expr *, act_cache::entry_hash, default_eq<std::pair<expr *, unsigned int>>>::key_value_eq_proc>::cell", ptr %9, i32 0, i32 1
  store ptr %m_data5, ptr %retval, align 8
  br label %return

if.end6:                                          ; preds = %do.body
  %m_collisions = getelementptr inbounds %class.chashtable, ptr %this1, i32 0, i32 7
  %10 = load i32, ptr %m_collisions, align 8
  %inc = add i32 %10, 1
  store i32 %inc, ptr %m_collisions, align 8
  %11 = load ptr, ptr %c, align 8
  %m_next = getelementptr inbounds %"struct.chashtable<cmap<std::pair<expr *, unsigned int>, expr *, act_cache::entry_hash, default_eq<std::pair<expr *, unsigned int>>>::key_value, cmap<std::pair<expr *, unsigned int>, expr *, act_cache::entry_hash, default_eq<std::pair<expr *, unsigned int>>>::key_value_hash_proc, cmap<std::pair<expr *, unsigned int>, expr *, act_cache::entry_hash, default_eq<std::pair<expr *, unsigned int>>>::key_value_eq_proc>::cell", ptr %11, i32 0, i32 0
  %12 = load ptr, ptr %m_next, align 8
  store ptr %12, ptr %c, align 8
  br label %do.cond

do.cond:                                          ; preds = %if.end6
  %13 = load ptr, ptr %c, align 8
  %cmp = icmp ne ptr %13, null
  br i1 %cmp, label %do.body, label %do.end, !llvm.loop !10

do.end:                                           ; preds = %do.cond
  store ptr null, ptr %retval, align 8
  br label %return

return:                                           ; preds = %do.end, %if.then4, %if.then
  %14 = load ptr, ptr %retval, align 8
  ret ptr %14
}

; Function Attrs: mustprogress nounwind uwtable
define linkonce_odr hidden void @_ZN4cmapISt4pairIP4exprjES2_N9act_cache10entry_hashE10default_eqIS3_EE9key_valueC2ERKS3_(ptr noundef nonnull align 8 dereferenceable(24) %this, ptr noundef nonnull align 8 dereferenceable(12) %k) unnamed_addr #5 comdat align 2 {
entry:
  %this.addr = alloca ptr, align 8
  %k.addr = alloca ptr, align 8
  store ptr %this, ptr %this.addr, align 8
  store ptr %k, ptr %k.addr, align 8
  %this1 = load ptr, ptr %this.addr, align 8
  %m_key = getelementptr inbounds %"struct.cmap<std::pair<expr *, unsigned int>, expr *, act_cache::entry_hash, default_eq<std::pair<expr *, unsigned int>>>::key_value", ptr %this1, i32 0, i32 0
  %0 = load ptr, ptr %k.addr, align 8
  call void @llvm.memcpy.p0.p0.i64(ptr align 8 %m_key, ptr align 8 %0, i64 16, i1 false)
  ret void
}

; Function Attrs: mustprogress uwtable
define linkonce_odr hidden noundef ptr @_ZNK4cmapISt4pairIP4exprjES2_N9act_cache10entry_hashE10default_eqIS3_EE9find_coreERKS3_(ptr noundef nonnull align 8 dereferenceable(64) %this, ptr noundef nonnull align 8 dereferenceable(12) %k) #4 comdat align 2 {
entry:
  %this.addr = alloca ptr, align 8
  %k.addr = alloca ptr, align 8
  %ref.tmp = alloca %"struct.cmap<std::pair<expr *, unsigned int>, expr *, act_cache::entry_hash, default_eq<std::pair<expr *, unsigned int>>>::key_value", align 8
  store ptr %this, ptr %this.addr, align 8
  store ptr %k, ptr %k.addr, align 8
  %this1 = load ptr, ptr %this.addr, align 8
  %m_table = getelementptr inbounds %class.cmap, ptr %this1, i32 0, i32 0
  %0 = load ptr, ptr %k.addr, align 8
  call void @_ZN4cmapISt4pairIP4exprjES2_N9act_cache10entry_hashE10default_eqIS3_EE9key_valueC2ERKS3_(ptr noundef nonnull align 8 dereferenceable(24) %ref.tmp, ptr noundef nonnull align 8 dereferenceable(12) %0)
  %call = call noundef ptr @_ZNK10chashtableIN4cmapISt4pairIP4exprjES3_N9act_cache10entry_hashE10default_eqIS4_EE9key_valueENS9_19key_value_hash_procENS9_17key_value_eq_procEE9find_coreERKSA_(ptr noundef nonnull align 8 dereferenceable(64) %m_table, ptr noundef nonnull align 8 dereferenceable(24) %ref.tmp)
  ret ptr %call
}

; Function Attrs: mustprogress nounwind uwtable
define linkonce_odr hidden void @_ZNSt4pairIP4exprjEC2IRS1_RjTnNSt9enable_ifIXaaclsr5_PCCPE22_MoveConstructiblePairIT_T0_EEclsr5_PCCPE30_ImplicitlyMoveConvertiblePairIS7_S8_EEEbE4typeELb1EEEOS7_OS8_(ptr noundef nonnull align 8 dereferenceable(12) %this, ptr noundef nonnull align 8 dereferenceable(8) %__x, ptr noundef nonnull align 4 dereferenceable(4) %__y) unnamed_addr #5 comdat align 2 {
entry:
  %this.addr = alloca ptr, align 8
  %__x.addr = alloca ptr, align 8
  %__y.addr = alloca ptr, align 8
  store ptr %this, ptr %this.addr, align 8
  store ptr %__x, ptr %__x.addr, align 8
  store ptr %__y, ptr %__y.addr, align 8
  %this1 = load ptr, ptr %this.addr, align 8
  %first = getelementptr inbounds %"struct.std::pair", ptr %this1, i32 0, i32 0
  %0 = load ptr, ptr %__x.addr, align 8
  %1 = load ptr, ptr %0, align 8
  store ptr %1, ptr %first, align 8
  %second = getelementptr inbounds %"struct.std::pair", ptr %this1, i32 0, i32 1
  %2 = load ptr, ptr %__y.addr, align 8
  %3 = load i32, ptr %2, align 4
  store i32 %3, ptr %second, align 8
  ret void
}

; Function Attrs: mustprogress uwtable
define hidden noundef ptr @_ZN9act_cache4findEP4exprj(ptr noundef nonnull align 8 dereferenceable(92) %this, ptr noundef %k, i32 noundef %offset) #4 align 2 {
entry:
  %retval = alloca ptr, align 8
  %this.addr = alloca ptr, align 8
  %k.addr = alloca ptr, align 8
  %offset.addr = alloca i32, align 4
  %e = alloca %"struct.std::pair", align 8
  %entry2 = alloca ptr, align 8
  store ptr %this, ptr %this.addr, align 8
  store ptr %k, ptr %k.addr, align 8
  store i32 %offset, ptr %offset.addr, align 4
  %this1 = load ptr, ptr %this.addr, align 8
  call void @_ZNSt4pairIP4exprjEC2IRS1_RjTnNSt9enable_ifIXaaclsr5_PCCPE22_MoveConstructiblePairIT_T0_EEclsr5_PCCPE30_ImplicitlyMoveConvertiblePairIS7_S8_EEEbE4typeELb1EEEOS7_OS8_(ptr noundef nonnull align 8 dereferenceable(12) %e, ptr noundef nonnull align 8 dereferenceable(8) %k.addr, ptr noundef nonnull align 4 dereferenceable(4) %offset.addr)
  %m_table = getelementptr inbounds %class.act_cache, ptr %this1, i32 0, i32 1
  %call = call noundef ptr @_ZNK4cmapISt4pairIP4exprjES2_N9act_cache10entry_hashE10default_eqIS3_EE9find_coreERKS3_(ptr noundef nonnull align 8 dereferenceable(64) %m_table, ptr noundef nonnull align 8 dereferenceable(12) %e)
  store ptr %call, ptr %entry2, align 8
  %0 = load ptr, ptr %entry2, align 8
  %cmp = icmp eq ptr %0, null
  br i1 %cmp, label %if.then, label %if.end

if.then:                                          ; preds = %entry
  store ptr null, ptr %retval, align 8
  br label %return

if.end:                                           ; preds = %entry
  %1 = load ptr, ptr %entry2, align 8
  %m_value = getelementptr inbounds %"struct.cmap<std::pair<expr *, unsigned int>, expr *, act_cache::entry_hash, default_eq<std::pair<expr *, unsigned int>>>::key_value", ptr %1, i32 0, i32 1
  %2 = load ptr, ptr %m_value, align 8
  %3 = ptrtoint ptr %2 to i64
  %and = and i64 %3, 7
  %cmp3 = icmp eq i64 %and, 0
  br i1 %cmp3, label %if.then4, label %if.end7

if.then4:                                         ; preds = %if.end
  %4 = load ptr, ptr %entry2, align 8
  %m_value5 = getelementptr inbounds %"struct.cmap<std::pair<expr *, unsigned int>, expr *, act_cache::entry_hash, default_eq<std::pair<expr *, unsigned int>>>::key_value", ptr %4, i32 0, i32 1
  %5 = load ptr, ptr %m_value5, align 8
  %6 = ptrtoint ptr %5 to i64
  %or = or i64 %6, 1
  %7 = inttoptr i64 %or to ptr
  %8 = load ptr, ptr %entry2, align 8
  %m_value6 = getelementptr inbounds %"struct.cmap<std::pair<expr *, unsigned int>, expr *, act_cache::entry_hash, default_eq<std::pair<expr *, unsigned int>>>::key_value", ptr %8, i32 0, i32 1
  store ptr %7, ptr %m_value6, align 8
  %m_unused = getelementptr inbounds %class.act_cache, ptr %this1, i32 0, i32 4
  %9 = load i32, ptr %m_unused, align 4
  %dec = add i32 %9, -1
  store i32 %dec, ptr %m_unused, align 4
  br label %if.end7

if.end7:                                          ; preds = %if.then4, %if.end
  %10 = load ptr, ptr %entry2, align 8
  %m_value8 = getelementptr inbounds %"struct.cmap<std::pair<expr *, unsigned int>, expr *, act_cache::entry_hash, default_eq<std::pair<expr *, unsigned int>>>::key_value", ptr %10, i32 0, i32 1
  %11 = load ptr, ptr %m_value8, align 8
  %12 = ptrtoint ptr %11 to i64
  %and9 = and i64 %12, -8
  %13 = inttoptr i64 %and9 to ptr
  store ptr %13, ptr %retval, align 8
  br label %return

return:                                           ; preds = %if.end7, %if.then
  %14 = load ptr, ptr %retval, align 8
  ret ptr %14
}