; Function Attrs: mustprogress nofree norecurse nosync nounwind memory(readwrite, inaccessiblemem: none) uwtable
define hidden noundef ptr @_ZN9act_cache4findEP4exprj(ptr nocapture noundef nonnull align 8 dereferenceable(92) %this, ptr noundef readonly %k, i32 noundef %offset) local_unnamed_addr #3 align 2 {
entry:
  %m_table = getelementptr inbounds i8, ptr %this, i64 8
  %m_slots.i.i = getelementptr inbounds i8, ptr %this, i64 28
  %0 = load i32, ptr %m_slots.i.i, align 4
  %sub.i.i = add i32 %0, -1
  %m_hash.i.i.i.i.i.i = getelementptr inbounds i8, ptr %k, i64 12
  %1 = load i32, ptr %m_hash.i.i.i.i.i.i, align 4
  %add.i.i.i.i.i = add i32 %1, %offset
  %and.i.i = and i32 %add.i.i.i.i.i, %sub.i.i
  %2 = load ptr, ptr %m_table, align 8
  %idx.ext.i.i = zext i32 %and.i.i to i64
  %add.ptr.i.i = getelementptr inbounds %"struct.chashtable<cmap<std::pair<expr *, unsigned int>, expr *, act_cache::entry_hash, default_eq<std::pair<expr *, unsigned int>>>::key_value, cmap<std::pair<expr *, unsigned int>, expr *, act_cache::entry_hash, default_eq<std::pair<expr *, unsigned int>>>::key_value_hash_proc, cmap<std::pair<expr *, unsigned int>, expr *, act_cache::entry_hash, default_eq<std::pair<expr *, unsigned int>>>::key_value_eq_proc>::cell", ptr %2, i64 %idx.ext.i.i
  %3 = load ptr, ptr %add.ptr.i.i, align 8
  %4 = ptrtoint ptr %3 to i64
  %and.i.i.i = and i64 %4, 7
  %cmp.i.i.i = icmp eq i64 %and.i.i.i, 1
  br i1 %cmp.i.i.i, label %return, label %do.body.preheader.i.i

do.body.preheader.i.i:                            ; preds = %entry
  %m_collisions.i.i = getelementptr inbounds i8, ptr %this, i64 40
  %m_collisions.i.promoted.i = load i32, ptr %m_collisions.i.i, align 8
  br label %do.body.i.i

do.body.i.i:                                      ; preds = %if.end6.i.i, %do.body.preheader.i.i
  %inc.i5.i = phi i32 [ %inc.i.i, %if.end6.i.i ], [ %m_collisions.i.promoted.i, %do.body.preheader.i.i ]
  %c.0.i.i = phi ptr [ %8, %if.end6.i.i ], [ %add.ptr.i.i, %do.body.preheader.i.i ]
  %m_data.i.i = getelementptr inbounds i8, ptr %c.0.i.i, i64 8
  %5 = load ptr, ptr %m_data.i.i, align 8
  %cmp.i.i.i.i.i.i = icmp eq ptr %5, %k
  %second.i.i.i.i.i.i = getelementptr inbounds i8, ptr %c.0.i.i, i64 16
  %6 = load i32, ptr %second.i.i.i.i.i.i, align 8
  %cmp3.i.i.i.i.i.i = icmp eq i32 %6, %offset
  %7 = select i1 %cmp.i.i.i.i.i.i, i1 %cmp3.i.i.i.i.i.i, i1 false
  br i1 %7, label %if.end, label %if.end6.i.i

if.end6.i.i:                                      ; preds = %do.body.i.i
  %inc.i.i = add i32 %inc.i5.i, 1
  store i32 %inc.i.i, ptr %m_collisions.i.i, align 8
  %8 = load ptr, ptr %c.0.i.i, align 8
  %cmp.not.i.i = icmp eq ptr %8, null
  br i1 %cmp.not.i.i, label %return, label %do.body.i.i, !llvm.loop !15

if.end:                                           ; preds = %do.body.i.i
  %m_value = getelementptr inbounds i8, ptr %c.0.i.i, i64 24
  %9 = load ptr, ptr %m_value, align 8
  %10 = ptrtoint ptr %9 to i64
  %and = and i64 %10, 7
  %cmp3 = icmp eq i64 %and, 0
  br i1 %cmp3, label %if.then4, label %if.end7

if.then4:                                         ; preds = %if.end
  %or = or disjoint i64 %10, 1
  %11 = inttoptr i64 %or to ptr
  store ptr %11, ptr %m_value, align 8
  %m_unused = getelementptr inbounds i8, ptr %this, i64 84
  %12 = load i32, ptr %m_unused, align 4
  %dec = add i32 %12, -1
  store i32 %dec, ptr %m_unused, align 4
  %.pre = load ptr, ptr %m_value, align 8
  %.pre9 = ptrtoint ptr %.pre to i64
  br label %if.end7

if.end7:                                          ; preds = %if.then4, %if.end
  %.pre-phi = phi i64 [ %.pre9, %if.then4 ], [ %10, %if.end ]
  %and9 = and i64 %.pre-phi, -8
  %13 = inttoptr i64 %and9 to ptr
  br label %return

return:                                           ; preds = %if.end6.i.i, %entry, %if.end7
  %retval.0 = phi ptr [ %13, %if.end7 ], [ null, %entry ], [ null, %if.end6.i.i ]
  ret ptr %retval.0
}